; Function Attrs: inlinehint nounwind uwtable
define internal void @agxbprint(ptr noundef nonnull captures(none) %0, ptr readnone captures(none) %1, ...) unnamed_addr #9 {
  %3 = alloca [1 x %struct.__va_list_tag], align 16
  %4 = alloca [32 x i8], align 16
  %5 = alloca [1 x %struct.__va_list_tag], align 16
  call void @llvm.lifetime.start.p0(i64 24, ptr nonnull %5) #18
  call void @llvm.va_start.p0(ptr nonnull %5)
  call void @llvm.lifetime.start.p0(i64 24, ptr nonnull %3) #18
  call void @llvm.va_copy.p0(ptr nonnull %3, ptr nonnull %5)
  %6 = call i32 @vsnprintf(ptr noundef null, i64 noundef 0, ptr noundef nonnull @.str.31, ptr noundef nonnull %3) #18
  call void @llvm.va_end.p0(ptr nonnull %3)
  %7 = icmp sgt i32 %6, -1
  br i1 %7, label %9, label %8

8:                                                ; preds = %2
  call void @llvm.va_end.p0(ptr nonnull %5)
  call void @llvm.lifetime.end.p0(i64 24, ptr nonnull %3) #18
  br label %vagxbprint.exit

9:                                                ; preds = %2
  %narrow.i = add nuw i32 %6, 1
  %10 = zext i32 %narrow.i to i64
  call void @llvm.lifetime.end.p0(i64 24, ptr nonnull %3) #18
  %11 = getelementptr i8, ptr %0, i64 31
  %.val.i.i = load i8, ptr %11, align 1, !tbaa !35
  %.not.i.i = icmp eq i8 %.val.i.i, -1
  br i1 %.not.i.i, label %13, label %agxbsizeof.exit.i

agxbsizeof.exit.i:                                ; preds = %9
  %12 = zext i8 %.val.i.i to i64
  br label %agxblen.exit.i

13:                                               ; preds = %9
  %14 = getelementptr inbounds nuw i8, ptr %0, i64 16
  %15 = load i64, ptr %14, align 8, !tbaa !35
  %16 = getelementptr inbounds nuw i8, ptr %0, i64 8
  %17 = load i64, ptr %16, align 8, !tbaa !35
  br label %agxblen.exit.i

agxblen.exit.i:                                   ; preds = %13, %agxbsizeof.exit.i
  %.0.i4.i = phi i64 [ 31, %agxbsizeof.exit.i ], [ %15, %13 ]
  %.0.i43.i = phi i64 [ %12, %agxbsizeof.exit.i ], [ %17, %13 ]
  %18 = sub i64 %.0.i4.i, %.0.i43.i
  %19 = icmp ult i64 %18, %10
  br i1 %19, label %20, label %26

20:                                               ; preds = %agxblen.exit.i
  %21 = sub nuw nsw i64 %10, %18
  %22 = icmp ne i8 %.val.i.i, -1
  %23 = icmp eq i64 %21, 1
  %or.cond.i = select i1 %22, i1 %23, i1 false
  br i1 %or.cond.i, label %25, label %24

24:                                               ; preds = %20
  call fastcc void @agxbmore(ptr noundef nonnull %0, i64 noundef %21)
  %.val.i.i.pre.i = load i8, ptr %11, align 1, !tbaa !35
  br label %26

25:                                               ; preds = %20
  call void @llvm.lifetime.start.p0(i64 32, ptr nonnull %4) #18
  call void @llvm.memset.p0.i64(ptr noundef nonnull align 16 dereferenceable(32) %4, i8 0, i64 32, i1 false)
  br label %agxbnext.exit.i

26:                                               ; preds = %24, %agxblen.exit.i
  %.val.i.i.i = phi i8 [ %.val.i.i, %agxblen.exit.i ], [ %.val.i.i.pre.i, %24 ]
  call void @llvm.lifetime.start.p0(i64 32, ptr nonnull %4) #18
  call void @llvm.memset.p0.i64(ptr noundef nonnull align 16 dereferenceable(32) %4, i8 0, i64 32, i1 false)
  %.not.i.i.i = icmp eq i8 %.val.i.i.i, -1
  br i1 %.not.i.i.i, label %30, label %27

27:                                               ; preds = %26
  %28 = zext i8 %.val.i.i.i to i64
  %29 = getelementptr inbounds nuw [31 x i8], ptr %0, i64 0, i64 %28
  br label %agxbnext.exit.i

30:                                               ; preds = %26
  %31 = getelementptr inbounds nuw i8, ptr %0, i64 8
  %32 = load i64, ptr %31, align 8, !tbaa !35
  %33 = load ptr, ptr %0, align 8, !tbaa !35
  %34 = getelementptr inbounds nuw i8, ptr %33, i64 %32
  br label %agxbnext.exit.i

agxbnext.exit.i:                                  ; preds = %30, %27, %25
  %.0369.i = phi i1 [ true, %25 ], [ false, %27 ], [ false, %30 ]
  %35 = phi ptr [ %4, %25 ], [ %29, %27 ], [ %34, %30 ]
  %36 = call i32 @vsnprintf(ptr noundef %35, i64 noundef %10, ptr noundef nonnull @.str.31, ptr noundef nonnull %5) #18
  %37 = icmp sgt i32 %36, 0
  br i1 %37, label %38, label %52

38:                                               ; preds = %agxbnext.exit.i
  %.val40.i = load i8, ptr %11, align 1, !tbaa !35
  %.not.i = icmp eq i8 %.val40.i, -1
  br i1 %.not.i, label %47, label %39

39:                                               ; preds = %38
  br i1 %.0369.i, label %agxbnext.exit46.i, label %43

agxbnext.exit46.i:                                ; preds = %39
  %40 = zext i8 %.val40.i to i64
  %41 = getelementptr inbounds nuw [31 x i8], ptr %0, i64 0, i64 %40
  %42 = zext nneg i32 %36 to i64
  call void @llvm.memcpy.p0.p0.i64(ptr nonnull align 1 %41, ptr nonnull align 16 %4, i64 %42, i1 false)
  %.pre.i = load i8, ptr %11, align 1, !tbaa !35
  br label %43

43:                                               ; preds = %agxbnext.exit46.i, %39
  %44 = phi i8 [ %.pre.i, %agxbnext.exit46.i ], [ %.val40.i, %39 ]
  %45 = trunc i32 %36 to i8
  %46 = add i8 %44, %45
  store i8 %46, ptr %11, align 1, !tbaa !35
  br label %52

47:                                               ; preds = %38
  %48 = zext nneg i32 %36 to i64
  %49 = getelementptr inbounds nuw i8, ptr %0, i64 8
  %50 = load i64, ptr %49, align 8, !tbaa !35
  %51 = add i64 %50, %48
  store i64 %51, ptr %49, align 8, !tbaa !35
  br label %52

52:                                               ; preds = %47, %43, %agxbnext.exit.i
  call void @llvm.lifetime.end.p0(i64 32, ptr nonnull %4) #18
  br label %vagxbprint.exit

vagxbprint.exit:                                  ; preds = %8, %52
  call void @llvm.va_end.p0(ptr nonnull %5)
  call void @llvm.lifetime.end.p0(i64 24, ptr nonnull %5) #18
  ret void
}